target datalayout = "e-m:e-p270:32:32-p271:32:32-p272:64:64-i64:64-i128:128-f80:128-n8:16:32:64-S128"
target triple = "x86_64-pc-linux-gnu"

%struct._fvalue_t = type { ptr, %union.anon.1 }
%union.anon.1 = type { %struct._protocol_value_t }
%struct._protocol_value_t = type { ptr, i32, ptr, i8 }

; Function Attrs: null_pointer_is_valid sspstrong uwtable
define internal i32 @sfloat_ieee_11073_hash(ptr noundef %0) #0 {
  %2 = alloca ptr, align 8
  %3 = alloca i64, align 8
  store ptr %0, ptr %2, align 8
  call void @llvm.lifetime.start.p0(i64 8, ptr %3) #7
  %4 = load ptr, ptr %2, align 8
  %5 = getelementptr inbounds nuw %struct._fvalue_t, ptr %4, i32 0, i32 1
  %6 = load i16, ptr %5, align 8
  %7 = zext i16 %6 to i64
  store i64 %7, ptr %3, align 8
  %8 = call i32 @g_int64_hash(ptr noundef %3)
  call void @llvm.lifetime.end.p0(i64 8, ptr %3) #7
  ret i32 %8
}