; Function Attrs: null_pointer_is_valid sspstrong uwtable
define internal i32 @sfloat_ieee_11073_hash(ptr noundef readonly captures(none) %0) #0 {
  %2 = alloca i64, align 8
  call void @llvm.lifetime.start.p0(i64 8, ptr nonnull %2) #11
  %3 = getelementptr inbounds nuw i8, ptr %0, i64 8
  %4 = load i16, ptr %3, align 8
  %5 = zext i16 %4 to i64
  store i64 %5, ptr %2, align 8
  %6 = call i32 @g_int64_hash(ptr noundef nonnull %2)
  call void @llvm.lifetime.end.p0(i64 8, ptr nonnull %2) #11
  ret i32 %6
}